target datalayout = "e-m:e-p270:32:32-p271:32:32-p272:64:64-i64:64-i128:128-f80:128-n8:16:32:64-S128"
target triple = "x86_64-pc-linux-gnu"

%struct.StressMajorizationSmoother_struct = type { ptr, ptr, ptr, ptr, ptr, ptr, i32, double, double, double }

; Function Attrs: nounwind uwtable
define void @StressMajorizationSmoother_delete(ptr noundef %0) #0 {
  %2 = alloca ptr, align 8
  store ptr %0, ptr %2, align 8, !tbaa !22
  %3 = load ptr, ptr %2, align 8, !tbaa !22
  %4 = icmp ne ptr %3, null
  br i1 %4, label %6, label %5

5:                                                ; preds = %1
  br label %41

6:                                                ; preds = %1
  %7 = load ptr, ptr %2, align 8, !tbaa !22
  %8 = getelementptr inbounds nuw %struct.StressMajorizationSmoother_struct, ptr %7, i32 0, i32 1
  %9 = load ptr, ptr %8, align 8, !tbaa !40
  %10 = icmp ne ptr %9, null
  br i1 %10, label %11, label %15

11:                                               ; preds = %6
  %12 = load ptr, ptr %2, align 8, !tbaa !22
  %13 = getelementptr inbounds nuw %struct.StressMajorizationSmoother_struct, ptr %12, i32 0, i32 1
  %14 = load ptr, ptr %13, align 8, !tbaa !40
  call void @SparseMatrix_delete(ptr noundef %14)
  br label %15

15:                                               ; preds = %11, %6
  %16 = load ptr, ptr %2, align 8, !tbaa !22
  %17 = getelementptr inbounds nuw %struct.StressMajorizationSmoother_struct, ptr %16, i32 0, i32 2
  %18 = load ptr, ptr %17, align 8, !tbaa !41
  %19 = icmp ne ptr %18, null
  br i1 %19, label %20, label %24

20:                                               ; preds = %15
  %21 = load ptr, ptr %2, align 8, !tbaa !22
  %22 = getelementptr inbounds nuw %struct.StressMajorizationSmoother_struct, ptr %21, i32 0, i32 2
  %23 = load ptr, ptr %22, align 8, !tbaa !41
  call void @SparseMatrix_delete(ptr noundef %23)
  br label %24

24:                                               ; preds = %20, %15
  %25 = load ptr, ptr %2, align 8, !tbaa !22
  %26 = getelementptr inbounds nuw %struct.StressMajorizationSmoother_struct, ptr %25, i32 0, i32 3
  %27 = load ptr, ptr %26, align 8, !tbaa !30
  call void @free(ptr noundef %27) #10
  %28 = load ptr, ptr %2, align 8, !tbaa !22
  %29 = getelementptr inbounds nuw %struct.StressMajorizationSmoother_struct, ptr %28, i32 0, i32 5
  %30 = load ptr, ptr %29, align 8, !tbaa !26
  %31 = icmp ne ptr %30, null
  br i1 %31, label %32, label %39

32:                                               ; preds = %24
  %33 = load ptr, ptr %2, align 8, !tbaa !22
  %34 = getelementptr inbounds nuw %struct.StressMajorizationSmoother_struct, ptr %33, i32 0, i32 4
  %35 = load ptr, ptr %34, align 8, !tbaa !63
  %36 = load ptr, ptr %2, align 8, !tbaa !22
  %37 = getelementptr inbounds nuw %struct.StressMajorizationSmoother_struct, ptr %36, i32 0, i32 5
  %38 = load ptr, ptr %37, align 8, !tbaa !26
  call void %35(ptr noundef %38)
  br label %39

39:                                               ; preds = %32, %24
  %40 = load ptr, ptr %2, align 8, !tbaa !22
  call void @free(ptr noundef %40) #10
  br label %41

41:                                               ; preds = %39, %5
  ret void
}

; Function Attrs: nounwind uwtable
define void @TriangleSmoother_delete(ptr noundef %0) #0 {
  %2 = alloca ptr, align 8
  store ptr %0, ptr %2, align 8, !tbaa !22
  %3 = load ptr, ptr %2, align 8, !tbaa !22
  call void @StressMajorizationSmoother_delete(ptr noundef %3)
  ret void
}